target datalayout = "e-m:e-p270:32:32-p271:32:32-p272:64:64-i64:64-i128:128-f80:128-n8:16:32:64-S128"
target triple = "x86_64-pc-linux-gnu"

%struct._YR_HASH_TABLE = type { i32, [0 x ptr] }

; Function Attrs: nounwind uwtable
define i32 @yr_hash_table_create(i32 noundef %0, ptr noundef %1) #0 {
  %3 = alloca i32, align 4
  %4 = alloca i32, align 4
  %5 = alloca ptr, align 8
  %6 = alloca ptr, align 8
  %7 = alloca i32, align 4
  store i32 %0, ptr %4, align 4
  store ptr %1, ptr %5, align 8
  %8 = load i32, ptr %4, align 4
  %9 = sext i32 %8 to i64
  %10 = mul i64 %9, 8
  %11 = add i64 8, %10
  %12 = call ptr @cli_max_malloc(i64 noundef %11)
  store ptr %12, ptr %6, align 8
  %13 = load ptr, ptr %6, align 8
  %14 = icmp eq ptr %13, null
  br i1 %14, label %15, label %16

15:                                               ; preds = %2
  store i32 1, ptr %3, align 4
  br label %36

16:                                               ; preds = %2
  %17 = load i32, ptr %4, align 4
  %18 = load ptr, ptr %6, align 8
  %19 = getelementptr inbounds %struct._YR_HASH_TABLE, ptr %18, i32 0, i32 0
  store i32 %17, ptr %19, align 8
  store i32 0, ptr %7, align 4
  br label %20

20:                                               ; preds = %30, %16
  %21 = load i32, ptr %7, align 4
  %22 = load i32, ptr %4, align 4
  %23 = icmp slt i32 %21, %22
  br i1 %23, label %24, label %33

24:                                               ; preds = %20
  %25 = load ptr, ptr %6, align 8
  %26 = getelementptr inbounds %struct._YR_HASH_TABLE, ptr %25, i32 0, i32 1
  %27 = load i32, ptr %7, align 4
  %28 = sext i32 %27 to i64
  %29 = getelementptr inbounds [0 x ptr], ptr %26, i64 0, i64 %28
  store ptr null, ptr %29, align 8
  br label %30

30:                                               ; preds = %24
  %31 = load i32, ptr %7, align 4
  %32 = add nsw i32 %31, 1
  store i32 %32, ptr %7, align 4
  br label %20

33:                                               ; preds = %20
  %34 = load ptr, ptr %6, align 8
  %35 = load ptr, ptr %5, align 8
  store ptr %34, ptr %35, align 8
  store i32 0, ptr %3, align 4
  br label %36

36:                                               ; preds = %33, %15
  %37 = load i32, ptr %3, align 4
  ret i32 %37
}