; Function Attrs: nounwind uwtable
define noundef i32 @yr_hash_table_create(i32 noundef %0, ptr nocapture noundef writeonly %1) local_unnamed_addr #1 {
  %3 = sext i32 %0 to i64
  %4 = shl nsw i64 %3, 3
  %5 = add nsw i64 %4, 8
  %6 = tail call ptr @cli_max_malloc(i64 noundef %5) #8
  %7 = icmp eq ptr %6, null
  br i1 %7, label %13, label %8

8:                                                ; preds = %2
  store i32 %0, ptr %6, align 8
  %9 = icmp sgt i32 %0, 0
  br i1 %9, label %.lr.ph, label %._crit_edge

.lr.ph:                                           ; preds = %8
  %10 = getelementptr inbounds i8, ptr %6, i64 8
  %11 = zext nneg i32 %0 to i64
  %12 = shl nuw nsw i64 %11, 3
  tail call void @llvm.memset.p0.i64(ptr nonnull align 8 %10, i8 0, i64 %12, i1 false)
  br label %._crit_edge

._crit_edge:                                      ; preds = %.lr.ph, %8
  store ptr %6, ptr %1, align 8
  br label %13

13:                                               ; preds = %2, %._crit_edge
  %.011 = phi i32 [ 0, %._crit_edge ], [ 1, %2 ]
  ret i32 %.011
}